; Function Attrs: mustprogress nofree norecurse nosync nounwind willreturn memory(read, argmem: readwrite, inaccessiblemem: none) uwtable
define internal void @pick_pixel1(ptr noundef readonly captures(none) %0, i32 noundef %1, i32 noundef %2, ptr noundef captures(none) %3, ptr readnone captures(none) %4, ptr readnone captures(none) %5, ptr readnone captures(none) %6) #6 {
  %8 = load i32, ptr %3, align 4, !tbaa !31
  %9 = icmp slt i32 %8, 0
  br i1 %9, label %10, label %20

10:                                               ; preds = %7
  %11 = load ptr, ptr %0, align 8, !tbaa !65
  %12 = getelementptr inbounds nuw i8, ptr %0, i64 64
  %13 = load i32, ptr %12, align 8, !tbaa !31
  %14 = mul nsw i32 %13, %2
  %15 = add nsw i32 %14, %1
  %16 = sext i32 %15 to i64
  %17 = getelementptr inbounds i8, ptr %11, i64 %16
  %18 = load i8, ptr %17, align 1, !tbaa !66
  %19 = zext i8 %18 to i32
  store i32 %19, ptr %3, align 4, !tbaa !31
  br label %20

20:                                               ; preds = %10, %7
  ret void
}